; ModuleID = '40/1160.c'
source_filename = "40/1160.c"
target datalayout = "e-m:e-p270:32:32-p271:32:32-p272:64:64-i64:64-f80:128-n8:16:32:64-S128"
target triple = "x86_64-pc-linux-gnu"

@.str = private unnamed_addr constant [16 x i8] c"%lf%lf%lf%lf%lf\00", align 1
@.str.1 = private unnamed_addr constant [6 x i8] c"%.4lf\00", align 1
@.str.2 = private unnamed_addr constant [14 x i8] c"Invalid input\00", align 1

; Function Attrs: noinline nounwind uwtable
define dso_local i32 @main() #0 {
  %1 = alloca i32, align 4
  %2 = alloca double, align 8
  %3 = alloca double, align 8
  %4 = alloca double, align 8
  %5 = alloca double, align 8
  %6 = alloca double, align 8
  %7 = alloca double, align 8
  store i32 0, i32* %1, align 4
  %8 = call i32 (i8*, ...) @__isoc99_scanf(i8* getelementptr inbounds ([16 x i8], [16 x i8]* @.str, i64 0, i64 0), double* %2, double* %3, double* %4, double* %5, double* %6)
  %9 = load double, double* %2, align 8
  %10 = load double, double* %3, align 8
  %11 = load double, double* %4, align 8
  %12 = load double, double* %5, align 8
  %13 = load double, double* %6, align 8
  %14 = call double @ji(double %9, double %10, double %11, double %12, double %13)
  store double %14, double* %7, align 8
  %15 = fcmp une double %14, 0.000000e+00
  br i1 %15, label %16, label %19

16:                                               ; preds = %0
  %17 = load double, double* %7, align 8
  %18 = call i32 (i8*, ...) @printf(i8* getelementptr inbounds ([6 x i8], [6 x i8]* @.str.1, i64 0, i64 0), double %17)
  br label %19

19:                                               ; preds = %16, %0
  ret i32 0
}

declare dso_local i32 @__isoc99_scanf(i8*, ...) #1

; Function Attrs: noinline nounwind uwtable
define dso_local double @ji(double %0, double %1, double %2, double %3, double %4) #0 {
  %6 = alloca double, align 8
  %7 = alloca double, align 8
  %8 = alloca double, align 8
  %9 = alloca double, align 8
  %10 = alloca double, align 8
  %11 = alloca double, align 8
  %12 = alloca double, align 8
  %13 = alloca double, align 8
  store double %0, double* %7, align 8
  store double %1, double* %8, align 8
  store double %2, double* %9, align 8
  store double %3, double* %10, align 8
  store double %4, double* %11, align 8
  store double 0.000000e+00, double* %12, align 8
  %14 = load double, double* %7, align 8
  %15 = load double, double* %8, align 8
  %16 = fadd double %14, %15
  %17 = load double, double* %9, align 8
  %18 = fadd double %16, %17
  %19 = load double, double* %10, align 8
  %20 = fadd double %18, %19
  %21 = fdiv double %20, 2.000000e+00
  store double %21, double* %13, align 8
  %22 = load double, double* %11, align 8
  %23 = fdiv double %22, 3.600000e+02
  %24 = fmul double %23, 1.000000e+02
  store double %24, double* %11, align 8
  %25 = load double, double* %13, align 8
  %26 = load double, double* %7, align 8
  %27 = fsub double %25, %26
  %28 = load double, double* %13, align 8
  %29 = load double, double* %8, align 8
  %30 = fsub double %28, %29
  %31 = fmul double %27, %30
  %32 = load double, double* %13, align 8
  %33 = load double, double* %9, align 8
  %34 = fsub double %32, %33
  %35 = fmul double %31, %34
  %36 = load double, double* %13, align 8
  %37 = load double, double* %10, align 8
  %38 = fsub double %36, %37
  %39 = fmul double %35, %38
  %40 = load double, double* %7, align 8
  %41 = load double, double* %8, align 8
  %42 = fmul double %40, %41
  %43 = load double, double* %9, align 8
  %44 = fmul double %42, %43
  %45 = load double, double* %10, align 8
  %46 = fmul double %44, %45
  %47 = load double, double* %11, align 8
  %48 = call double @cos(double %47) #3
  %49 = fmul double %46, %48
  %50 = load double, double* %11, align 8
  %51 = call double @cos(double %50) #3
  %52 = fmul double %49, %51
  %53 = fsub double %39, %52
  %54 = call double @sqrt(double %53) #3
  %55 = fcmp oge double %54, 0.000000e+00
  br i1 %55, label %56, label %87

56:                                               ; preds = %5
  %57 = load double, double* %13, align 8
  %58 = load double, double* %7, align 8
  %59 = fsub double %57, %58
  %60 = load double, double* %13, align 8
  %61 = load double, double* %8, align 8
  %62 = fsub double %60, %61
  %63 = fmul double %59, %62
  %64 = load double, double* %13, align 8
  %65 = load double, double* %9, align 8
  %66 = fsub double %64, %65
  %67 = fmul double %63, %66
  %68 = load double, double* %13, align 8
  %69 = load double, double* %10, align 8
  %70 = fsub double %68, %69
  %71 = fmul double %67, %70
  %72 = load double, double* %7, align 8
  %73 = load double, double* %8, align 8
  %74 = fmul double %72, %73
  %75 = load double, double* %9, align 8
  %76 = fmul double %74, %75
  %77 = load double, double* %10, align 8
  %78 = fmul double %76, %77
  %79 = load double, double* %11, align 8
  %80 = call double @cos(double %79) #3
  %81 = fmul double %78, %80
  %82 = load double, double* %11, align 8
  %83 = call double @cos(double %82) #3
  %84 = fmul double %81, %83
  %85 = fsub double %71, %84
  %86 = call double @sqrt(double %85) #3
  store double %86, double* %12, align 8
  br label %89

87:                                               ; preds = %5
  %88 = call i32 (i8*, ...) @printf(i8* getelementptr inbounds ([14 x i8], [14 x i8]* @.str.2, i64 0, i64 0))
  store double 0.000000e+00, double* %6, align 8
  br label %91

89:                                               ; preds = %56
  %90 = load double, double* %12, align 8
  store double %90, double* %6, align 8
  br label %91

91:                                               ; preds = %89, %87
  %92 = load double, double* %6, align 8
  ret double %92
}

declare dso_local i32 @printf(i8*, ...) #1

; Function Attrs: nounwind
declare dso_local double @sqrt(double) #2

; Function Attrs: nounwind
declare dso_local double @cos(double) #2


!llvm.module.flags = !{!0}
!llvm.ident = !{!1}

!0 = !{i32 1, !"wchar_size", i32 4}
!1 = !{!"clang version 10.0.0-4ubuntu1 "}
